target datalayout = "e-m:e-p270:32:32-p271:32:32-p272:64:64-i64:64-i128:128-f80:128-n8:16:32:64-S128"
target triple = "x86_64-pc-linux-gnu"

%class.btTriangleMesh = type { %class.btTriangleIndexVertexArray.base, [4 x i8], %class.btAlignedObjectArray.0, %class.btAlignedObjectArray.2, %class.btAlignedObjectArray.4, %class.btAlignedObjectArray.6, i8, i8, float }
%class.btTriangleIndexVertexArray.base = type <{ %class.btStridingMeshInterface, %class.btAlignedObjectArray, [2 x i32], i32, %class.btVector3, %class.btVector3 }>
%class.btStridingMeshInterface = type { ptr, %class.btVector3 }
%class.btAlignedObjectArray = type <{ [4 x i8], i32, i32, [4 x i8], ptr, i8, [7 x i8] }>
%class.btVector3 = type { [4 x float] }
%class.btAlignedObjectArray.0 = type <{ [4 x i8], i32, i32, [4 x i8], ptr, i8, [7 x i8] }>
%class.btAlignedObjectArray.2 = type <{ [4 x i8], i32, i32, [4 x i8], ptr, i8, [7 x i8] }>
%class.btAlignedObjectArray.4 = type <{ [4 x i8], i32, i32, [4 x i8], ptr, i8, [7 x i8] }>
%class.btAlignedObjectArray.6 = type <{ [4 x i8], i32, i32, [4 x i8], ptr, i8, [7 x i8] }>

; Function Attrs: inlinehint mustprogress nounwind uwtable
define linkonce_odr dso_local noundef i32 @_ZNK20btAlignedObjectArrayItE4sizeEv(ptr noundef nonnull align 8 dereferenceable(25) %0) #5 comdat align 2 {
  %2 = alloca ptr, align 8
  store ptr %0, ptr %2, align 8, !tbaa !62
  %3 = load ptr, ptr %2, align 8
  %4 = getelementptr inbounds nuw %class.btAlignedObjectArray.6, ptr %3, i32 0, i32 1
  %5 = load i32, ptr %4, align 4, !tbaa !74
  ret i32 %5
}

; Function Attrs: inlinehint mustprogress nounwind uwtable
define linkonce_odr dso_local noundef i32 @_ZNK20btAlignedObjectArrayIjE4sizeEv(ptr noundef nonnull align 8 dereferenceable(25) %0) #5 comdat align 2 {
  %2 = alloca ptr, align 8
  store ptr %0, ptr %2, align 8, !tbaa !60
  %3 = load ptr, ptr %2, align 8
  %4 = getelementptr inbounds nuw %class.btAlignedObjectArray.4, ptr %3, i32 0, i32 1
  %5 = load i32, ptr %4, align 4, !tbaa !73
  ret i32 %5
}

; Function Attrs: mustprogress uwtable
define dso_local noundef i32 @_ZNK14btTriangleMesh15getNumTrianglesEv(ptr noundef nonnull align 8 dereferenceable(240) %0) #2 align 2 {
  %2 = alloca i32, align 4
  %3 = alloca ptr, align 8
  store ptr %0, ptr %3, align 8, !tbaa !12
  %4 = load ptr, ptr %3, align 8
  %5 = getelementptr inbounds nuw %class.btTriangleMesh, ptr %4, i32 0, i32 6
  %6 = load i8, ptr %5, align 8, !tbaa !20, !range !18, !noundef !19
  %7 = trunc i8 %6 to i1
  br i1 %7, label %8, label %12

8:                                                ; preds = %1
  %9 = getelementptr inbounds nuw %class.btTriangleMesh, ptr %4, i32 0, i32 4
  %10 = call noundef i32 @_ZNK20btAlignedObjectArrayIjE4sizeEv(ptr noundef nonnull align 8 dereferenceable(25) %9)
  %11 = sdiv i32 %10, 3
  store i32 %11, ptr %2, align 4
  br label %16

12:                                               ; preds = %1
  %13 = getelementptr inbounds nuw %class.btTriangleMesh, ptr %4, i32 0, i32 5
  %14 = call noundef i32 @_ZNK20btAlignedObjectArrayItE4sizeEv(ptr noundef nonnull align 8 dereferenceable(25) %13)
  %15 = sdiv i32 %14, 3
  store i32 %15, ptr %2, align 4
  br label %16

16:                                               ; preds = %12, %8
  %17 = load i32, ptr %2, align 4
  ret i32 %17
}