; Function Attrs: mustprogress nofree norecurse nosync nounwind willreturn memory(argmem: read) uwtable
define dso_local noundef range(i32 -715827882, 715827883) i32 @_ZNK14btTriangleMesh15getNumTrianglesEv(ptr noundef nonnull readonly align 8 captures(none) dereferenceable(240) %0) local_unnamed_addr #4 align 2 {
  %2 = getelementptr inbounds nuw i8, ptr %0, i64 232
  %3 = load i8, ptr %2, align 8, !tbaa !52, !range !64, !noundef !65
  %4 = trunc nuw i8 %3 to i1
  %5 = getelementptr inbounds nuw i8, ptr %0, i64 172
  %6 = load i32, ptr %5, align 4
  %7 = getelementptr inbounds nuw i8, ptr %0, i64 204
  %8 = load i32, ptr %7, align 4
  %.0.in = select i1 %4, i32 %6, i32 %8
  %.0 = sdiv i32 %.0.in, 3
  ret i32 %.0
}